target datalayout = "e-m:e-p270:32:32-p271:32:32-p272:64:64-i64:64-i128:128-f80:128-n8:16:32:64-S128"
target triple = "x86_64-pc-linux-gnu"

%class.QPointF = type { double, double }
%class.QColor = type <{ i32, %"union.QColor::CT", [2 x i8] }>
%"union.QColor::CT" = type { %struct.anon }
%struct.anon = type { i16, i16, i16, i16, i16 }
%class.EqHandle = type { %class.Handle, i32, double, [3 x %class.QPointF], ptr, ptr, ptr }
%class.Handle = type { %class.QGraphicsObject, %class.QColor, i32, ptr }
%class.QGraphicsObject = type { %class.QObject, %class.QGraphicsItem }
%class.QObject = type { ptr, %class.QScopedPointer }
%class.QScopedPointer = type { ptr }
%class.QGraphicsItem = type { ptr, %class.QScopedPointer.4 }
%class.QScopedPointer.4 = type { ptr }
%class.QRectF = type { double, double, double, double }

; Function Attrs: mustprogress nounwind uwtable
define linkonce_odr void @_ZN6QRectFC2Edddd(ptr noundef nonnull align 8 dereferenceable(32) %0, double noundef %1, double noundef %2, double noundef %3, double noundef %4) unnamed_addr #1 comdat align 2 {
  %6 = alloca ptr, align 8
  %7 = alloca double, align 8
  %8 = alloca double, align 8
  %9 = alloca double, align 8
  %10 = alloca double, align 8
  store ptr %0, ptr %6, align 8
  store double %1, ptr %7, align 8
  store double %2, ptr %8, align 8
  store double %3, ptr %9, align 8
  store double %4, ptr %10, align 8
  %11 = load ptr, ptr %6, align 8
  %12 = getelementptr inbounds %class.QRectF, ptr %11, i32 0, i32 0
  %13 = load double, ptr %7, align 8
  store double %13, ptr %12, align 8
  %14 = getelementptr inbounds %class.QRectF, ptr %11, i32 0, i32 1
  %15 = load double, ptr %8, align 8
  store double %15, ptr %14, align 8
  %16 = getelementptr inbounds %class.QRectF, ptr %11, i32 0, i32 2
  %17 = load double, ptr %9, align 8
  store double %17, ptr %16, align 8
  %18 = getelementptr inbounds %class.QRectF, ptr %11, i32 0, i32 3
  %19 = load double, ptr %10, align 8
  store double %19, ptr %18, align 8
  ret void
}

; Function Attrs: mustprogress nounwind uwtable
define void @_ZNK8EqHandle12boundingRectEv(ptr dead_on_unwind noalias writable sret(%class.QRectF) align 8 %0, ptr noundef nonnull align 8 dereferenceable(152) %1) unnamed_addr #1 align 2 {
  %3 = alloca ptr, align 8
  store ptr %1, ptr %3, align 8
  %4 = load ptr, ptr %3, align 8
  %5 = getelementptr inbounds %class.Handle, ptr %4, i32 0, i32 2
  %6 = load i32, ptr %5, align 8
  %7 = sub nsw i32 0, %6
  %8 = sdiv i32 %7, 2
  %9 = sitofp i32 %8 to double
  %10 = getelementptr inbounds %class.EqHandle, ptr %4, i32 0, i32 2
  %11 = load double, ptr %10, align 8
  %12 = fneg double %11
  %13 = getelementptr inbounds %class.Handle, ptr %4, i32 0, i32 2
  %14 = load i32, ptr %13, align 8
  %15 = sitofp i32 %14 to double
  %16 = getelementptr inbounds %class.EqHandle, ptr %4, i32 0, i32 2
  %17 = load double, ptr %16, align 8
  call void @_ZN6QRectFC2Edddd(ptr noundef nonnull align 8 dereferenceable(32) %0, double noundef %9, double noundef %12, double noundef %15, double noundef %17) #9
  ret void
}

; Function Attrs: uwtable
define void @_ZThn16_NK8EqHandle12boundingRectEv(ptr dead_on_unwind noalias writable sret(%class.QRectF) align 8 %0, ptr noundef %1) unnamed_addr #7 align 2 {
  %3 = alloca ptr, align 8
  store ptr %1, ptr %3, align 8
  %4 = load ptr, ptr %3, align 8
  %5 = getelementptr inbounds i8, ptr %4, i64 -16
  tail call void @_ZNK8EqHandle12boundingRectEv(ptr dead_on_unwind writable sret(%class.QRectF) align 8 %0, ptr noundef nonnull align 8 dereferenceable(152) %5)
  ret void
}