; Function Attrs: mustprogress nofree norecurse nosync nounwind willreturn memory(argmem: readwrite, inaccessiblemem: readwrite) uwtable
define void @_ZThn16_NK8EqHandle12boundingRectEv(ptr dead_on_unwind noalias nocapture writable writeonly sret(%class.QRectF) align 8 %0, ptr nocapture noundef readonly %1) unnamed_addr #9 align 2 {
  tail call void @llvm.experimental.noalias.scope.decl(metadata !5)
  %3 = getelementptr inbounds i8, ptr %1, i64 32
  %4 = load i32, ptr %3, align 8, !noalias !5
  %5 = sdiv i32 %4, -2
  %6 = sitofp i32 %5 to double
  %7 = getelementptr inbounds i8, ptr %1, i64 56
  %8 = load double, ptr %7, align 8, !noalias !5
  %9 = fneg double %8
  %10 = sitofp i32 %4 to double
  store double %6, ptr %0, align 8, !alias.scope !5
  %11 = getelementptr inbounds i8, ptr %0, i64 8
  store double %9, ptr %11, align 8, !alias.scope !5
  %12 = getelementptr inbounds i8, ptr %0, i64 16
  store double %10, ptr %12, align 8, !alias.scope !5
  %13 = getelementptr inbounds i8, ptr %0, i64 24
  store double %8, ptr %13, align 8, !alias.scope !5
  ret void
}